; Function Attrs: nounwind uwtable
define noalias noundef ptr @Abc_NtkPartitionNaive(ptr noundef readonly captures(none) %0, i32 noundef %1) local_unnamed_addr #2 {
  %3 = getelementptr i8, ptr %0, i64 64
  %.val16 = load ptr, ptr %3, align 8
  %4 = getelementptr i8, ptr %.val16, i64 4
  %.val16.val = load i32, ptr %4, align 4
  %5 = sdiv i32 %.val16.val, %1
  %6 = srem i32 %.val16.val, %1
  %7 = icmp sgt i32 %6, 0
  %8 = zext i1 %7 to i32
  %9 = add nsw i32 %5, %8
  %10 = tail call noalias dereferenceable_or_null(16) ptr @malloc(i64 noundef 16) #22
  %11 = add i32 %9, -1
  %or.cond.i.i = icmp ult i32 %11, 7
  %spec.store.select.i.i = select i1 %or.cond.i.i, i32 8, i32 %9
  store i32 %spec.store.select.i.i, ptr %10, align 8
  %.not.i.i = icmp eq i32 %spec.store.select.i.i, 0
  br i1 %.not.i.i, label %Vec_VecAlloc.exit.i, label %12

12:                                               ; preds = %2
  %13 = sext i32 %spec.store.select.i.i to i64
  %14 = shl nsw i64 %13, 3
  %15 = tail call noalias ptr @malloc(i64 noundef %14) #22
  br label %Vec_VecAlloc.exit.i

Vec_VecAlloc.exit.i:                              ; preds = %12, %2
  %16 = phi ptr [ %15, %12 ], [ null, %2 ]
  %17 = getelementptr inbounds nuw i8, ptr %10, i64 8
  store ptr %16, ptr %17, align 8
  %18 = icmp sgt i32 %9, 0
  br i1 %18, label %.lr.ph.preheader.i, label %Vec_VecStart.exit

.lr.ph.preheader.i:                               ; preds = %Vec_VecAlloc.exit.i
  %wide.trip.count.i = zext nneg i32 %9 to i64
  br label %.lr.ph.i

.lr.ph.i:                                         ; preds = %.lr.ph.i, %.lr.ph.preheader.i
  %indvars.iv.i = phi i64 [ 0, %.lr.ph.preheader.i ], [ %indvars.iv.next.i, %.lr.ph.i ]
  %calloc.i = tail call dereferenceable_or_null(16) ptr @calloc(i64 1, i64 16)
  %19 = getelementptr inbounds nuw ptr, ptr %16, i64 %indvars.iv.i
  store ptr %calloc.i, ptr %19, align 8
  %indvars.iv.next.i = add nuw nsw i64 %indvars.iv.i, 1
  %exitcond.not.i = icmp eq i64 %indvars.iv.next.i, %wide.trip.count.i
  br i1 %exitcond.not.i, label %Vec_VecStart.exit, label %.lr.ph.i, !llvm.loop !39

Vec_VecStart.exit:                                ; preds = %.lr.ph.i, %Vec_VecAlloc.exit.i
  %20 = getelementptr inbounds nuw i8, ptr %10, i64 4
  store i32 %9, ptr %20, align 4
  %21 = icmp sgt i32 %.val16.val, 0
  br i1 %21, label %.lr.ph, label %.critedge

.lr.ph:                                           ; preds = %Vec_VecStart.exit, %Vec_IntPush.exit
  %.020 = phi i32 [ %57, %Vec_IntPush.exit ], [ 0, %Vec_VecStart.exit ]
  %22 = sdiv i32 %.020, %1
  %.val = load ptr, ptr %17, align 8
  %23 = sext i32 %22 to i64
  %24 = getelementptr inbounds ptr, ptr %.val, i64 %23
  %25 = load ptr, ptr %24, align 8
  %26 = getelementptr inbounds nuw i8, ptr %25, i64 4
  %27 = load i32, ptr %26, align 4
  %28 = load i32, ptr %25, align 8
  %29 = icmp eq i32 %27, %28
  br i1 %29, label %30, label %.Vec_IntGrow.exit10_crit_edge.i

.Vec_IntGrow.exit10_crit_edge.i:                  ; preds = %.lr.ph
  %.phi.trans.insert.i = getelementptr inbounds nuw i8, ptr %25, i64 8
  %.pre.i = load ptr, ptr %.phi.trans.insert.i, align 8
  br label %Vec_IntPush.exit

30:                                               ; preds = %.lr.ph
  %31 = icmp slt i32 %27, 16
  br i1 %31, label %32, label %40

32:                                               ; preds = %30
  %33 = getelementptr inbounds nuw i8, ptr %25, i64 8
  %34 = load ptr, ptr %33, align 8
  %.not9.i.i = icmp eq ptr %34, null
  br i1 %.not9.i.i, label %37, label %35

35:                                               ; preds = %32
  %36 = tail call dereferenceable_or_null(64) ptr @realloc(ptr noundef nonnull %34, i64 noundef 64) #24
  br label %Vec_IntGrow.exit.i

37:                                               ; preds = %32
  %38 = tail call noalias dereferenceable_or_null(64) ptr @malloc(i64 noundef 64) #22
  br label %Vec_IntGrow.exit.i

Vec_IntGrow.exit.i:                               ; preds = %37, %35
  %39 = phi ptr [ %36, %35 ], [ %38, %37 ]
  store ptr %39, ptr %33, align 8
  store i32 16, ptr %25, align 8
  br label %Vec_IntPush.exit

40:                                               ; preds = %30
  %41 = shl nuw nsw i32 %27, 1
  %42 = getelementptr inbounds nuw i8, ptr %25, i64 8
  %43 = load ptr, ptr %42, align 8
  %.not9.i9.i = icmp eq ptr %43, null
  %44 = zext nneg i32 %41 to i64
  %45 = shl nuw nsw i64 %44, 2
  br i1 %.not9.i9.i, label %48, label %46

46:                                               ; preds = %40
  %47 = tail call ptr @realloc(ptr noundef nonnull %43, i64 noundef %45) #24
  br label %50

48:                                               ; preds = %40
  %49 = tail call noalias ptr @malloc(i64 noundef %45) #22
  br label %50

50:                                               ; preds = %48, %46
  %51 = phi ptr [ %47, %46 ], [ %49, %48 ]
  store ptr %51, ptr %42, align 8
  store i32 %41, ptr %25, align 8
  br label %Vec_IntPush.exit

Vec_IntPush.exit:                                 ; preds = %.Vec_IntGrow.exit10_crit_edge.i, %Vec_IntGrow.exit.i, %50
  %52 = phi ptr [ %.pre.i, %.Vec_IntGrow.exit10_crit_edge.i ], [ %51, %50 ], [ %39, %Vec_IntGrow.exit.i ]
  %53 = load i32, ptr %26, align 4
  %54 = add nsw i32 %53, 1
  store i32 %54, ptr %26, align 4
  %55 = sext i32 %53 to i64
  %56 = getelementptr inbounds i32, ptr %52, i64 %55
  store i32 %.020, ptr %56, align 4
  %57 = add nuw nsw i32 %.020, 1
  %.val14 = load ptr, ptr %3, align 8
  %58 = getelementptr i8, ptr %.val14, i64 4
  %.val14.val = load i32, ptr %58, align 4
  %59 = icmp slt i32 %57, %.val14.val
  br i1 %59, label %.lr.ph, label %.critedge, !llvm.loop !40

.critedge:                                        ; preds = %Vec_IntPush.exit, %Vec_VecStart.exit
  ret ptr %10
}